target datalayout = "e-m:e-p270:32:32-p271:32:32-p272:64:64-i64:64-i128:128-f80:128-n8:16:32:64-S128"
target triple = "x86_64-pc-linux-gnu"

%struct.nstime_t = type { i64, i32 }
%struct.wtap = type { ptr, ptr, i32, i32, i32, ptr, ptr, ptr, i32, ptr, ptr, ptr, ptr, ptr, ptr, ptr, ptr, ptr, ptr, i32, i32, ptr, ptr, ptr, ptr }
%struct.nettrace_3gpp_32_423_file_info = type { ptr, i64, %struct.nstime_t }
%struct._GByteArray = type { ptr, i32 }

@c_e_msg = internal constant [7 x i8] c"</msg>\00", align 1

; Function Attrs: nounwind uwtable
define internal ptr @read_until(ptr noundef %0, ptr noundef %1, ptr noundef %2, ptr noundef %3, ptr noundef %4) #0 {
  %6 = alloca ptr, align 8
  %7 = alloca ptr, align 8
  %8 = alloca ptr, align 8
  %9 = alloca ptr, align 8
  %10 = alloca ptr, align 8
  %11 = alloca [1024 x i8], align 16
  %12 = alloca ptr, align 8
  %13 = alloca i32, align 4
  store ptr %0, ptr %6, align 8
  store ptr %1, ptr %7, align 8
  store ptr %2, ptr %8, align 8
  store ptr %3, ptr %9, align 8
  store ptr %4, ptr %10, align 8
  store i32 0, ptr %13, align 4
  br label %14

14:                                               ; preds = %40, %5
  %15 = load ptr, ptr %6, align 8
  %16 = getelementptr inbounds %struct._GByteArray, ptr %15, i32 0, i32 0
  %17 = load ptr, ptr %16, align 8
  %18 = load ptr, ptr %6, align 8
  %19 = getelementptr inbounds %struct._GByteArray, ptr %18, i32 0, i32 1
  %20 = load i32, ptr %19, align 8
  %21 = zext i32 %20 to i64
  %22 = load ptr, ptr %7, align 8
  %23 = call ptr @g_strstr_len(ptr noundef %17, i64 noundef %21, ptr noundef %22)
  store ptr %23, ptr %12, align 8
  %24 = icmp eq ptr null, %23
  br i1 %24, label %25, label %45

25:                                               ; preds = %14
  %26 = getelementptr inbounds [1024 x i8], ptr %11, i64 0, i64 0
  %27 = load ptr, ptr %8, align 8
  %28 = call i32 @file_read(ptr noundef %26, i32 noundef 1024, ptr noundef %27)
  store i32 %28, ptr %13, align 4
  %29 = load i32, ptr %13, align 4
  %30 = icmp slt i32 %29, 0
  br i1 %30, label %31, label %36

31:                                               ; preds = %25
  %32 = load ptr, ptr %8, align 8
  %33 = load ptr, ptr %10, align 8
  %34 = call i32 @file_error(ptr noundef %32, ptr noundef %33)
  %35 = load ptr, ptr %9, align 8
  store i32 %34, ptr %35, align 4
  br label %45

36:                                               ; preds = %25
  %37 = load i32, ptr %13, align 4
  %38 = icmp eq i32 %37, 0
  br i1 %38, label %39, label %40

39:                                               ; preds = %36
  br label %45

40:                                               ; preds = %36
  %41 = load ptr, ptr %6, align 8
  %42 = getelementptr inbounds [1024 x i8], ptr %11, i64 0, i64 0
  %43 = load i32, ptr %13, align 4
  %44 = call ptr @g_byte_array_append(ptr noundef %41, ptr noundef %42, i32 noundef %43)
  br label %14, !llvm.loop !6

45:                                               ; preds = %39, %31, %14
  %46 = load ptr, ptr %12, align 8
  ret ptr %46
}

; Function Attrs: nounwind uwtable
define internal i32 @nettrace_seek_read(ptr noundef %0, i64 noundef %1, ptr noundef %2, ptr noundef %3, ptr noundef %4, ptr noundef %5) #0 {
  %7 = alloca i32, align 4
  %8 = alloca ptr, align 8
  %9 = alloca i64, align 8
  %10 = alloca ptr, align 8
  %11 = alloca ptr, align 8
  %12 = alloca ptr, align 8
  %13 = alloca ptr, align 8
  %14 = alloca ptr, align 8
  %15 = alloca i32, align 4
  %16 = alloca ptr, align 8
  %17 = alloca i32, align 4
  store ptr %0, ptr %8, align 8
  store i64 %1, ptr %9, align 8
  store ptr %2, ptr %10, align 8
  store ptr %3, ptr %11, align 8
  store ptr %4, ptr %12, align 8
  store ptr %5, ptr %13, align 8
  %18 = load ptr, ptr %8, align 8
  %19 = getelementptr inbounds %struct.wtap, ptr %18, i32 0, i32 13
  %20 = load ptr, ptr %19, align 8
  store ptr %20, ptr %14, align 8
  store i32 0, ptr %15, align 4
  store i32 0, ptr %17, align 4
  %21 = load ptr, ptr %8, align 8
  %22 = getelementptr inbounds %struct.wtap, ptr %21, i32 0, i32 1
  %23 = load ptr, ptr %22, align 8
  %24 = load i64, ptr %9, align 8
  %25 = load ptr, ptr %12, align 8
  %26 = call i64 @file_seek(ptr noundef %23, i64 noundef %24, i32 noundef 0, ptr noundef %25)
  %27 = icmp eq i64 %26, -1
  br i1 %27, label %28, label %29

28:                                               ; preds = %6
  store i32 0, ptr %7, align 4
  br label %73

29:                                               ; preds = %6
  %30 = load ptr, ptr %14, align 8
  %31 = getelementptr inbounds %struct.nettrace_3gpp_32_423_file_info, ptr %30, i32 0, i32 0
  %32 = load ptr, ptr %31, align 8
  %33 = load ptr, ptr %8, align 8
  %34 = getelementptr inbounds %struct.wtap, ptr %33, i32 0, i32 1
  %35 = load ptr, ptr %34, align 8
  %36 = load ptr, ptr %12, align 8
  %37 = load ptr, ptr %13, align 8
  %38 = call ptr @read_until(ptr noundef %32, ptr noundef @c_e_msg, ptr noundef %35, ptr noundef %36, ptr noundef %37)
  store ptr %38, ptr %16, align 8
  %39 = load ptr, ptr %16, align 8
  %40 = icmp eq ptr %39, null
  br i1 %40, label %41, label %42

41:                                               ; preds = %29
  store i32 0, ptr %7, align 4
  br label %73

42:                                               ; preds = %29
  %43 = load ptr, ptr %16, align 8
  %44 = getelementptr i8, ptr %43, i64 6
  store ptr %44, ptr %16, align 8
  %45 = load ptr, ptr %16, align 8
  %46 = load ptr, ptr %14, align 8
  %47 = getelementptr inbounds %struct.nettrace_3gpp_32_423_file_info, ptr %46, i32 0, i32 0
  %48 = load ptr, ptr %47, align 8
  %49 = getelementptr inbounds %struct._GByteArray, ptr %48, i32 0, i32 0
  %50 = load ptr, ptr %49, align 8
  %51 = ptrtoint ptr %45 to i64
  %52 = ptrtoint ptr %50 to i64
  %53 = sub i64 %51, %52
  %54 = trunc i64 %53 to i32
  store i32 %54, ptr %17, align 4
  %55 = load ptr, ptr %14, align 8
  %56 = load ptr, ptr %10, align 8
  %57 = load ptr, ptr %11, align 8
  %58 = load ptr, ptr %14, align 8
  %59 = getelementptr inbounds %struct.nettrace_3gpp_32_423_file_info, ptr %58, i32 0, i32 0
  %60 = load ptr, ptr %59, align 8
  %61 = getelementptr inbounds %struct._GByteArray, ptr %60, i32 0, i32 0
  %62 = load ptr, ptr %61, align 8
  %63 = load i32, ptr %17, align 4
  %64 = zext i32 %63 to i64
  %65 = load ptr, ptr %12, align 8
  %66 = load ptr, ptr %13, align 8
  %67 = call i32 @nettrace_msg_to_packet(ptr noundef %55, ptr noundef %56, ptr noundef %57, ptr noundef %62, i64 noundef %64, ptr noundef %65, ptr noundef %66)
  store i32 %67, ptr %15, align 4
  %68 = load ptr, ptr %14, align 8
  %69 = getelementptr inbounds %struct.nettrace_3gpp_32_423_file_info, ptr %68, i32 0, i32 0
  %70 = load ptr, ptr %69, align 8
  %71 = call ptr @g_byte_array_set_size(ptr noundef %70, i32 noundef 0)
  %72 = load i32, ptr %15, align 4
  store i32 %72, ptr %7, align 4
  br label %73

73:                                               ; preds = %42, %41, %28
  %74 = load i32, ptr %7, align 4
  ret i32 %74
}