; Function Attrs: nounwind uwtable
define internal range(i32 0, 2) i32 @nettrace_seek_read(ptr noundef readonly captures(none) %0, i64 noundef %1, ptr noundef captures(none) %2, ptr noundef %3, ptr noundef %4, ptr noundef %5) #0 {
  %7 = alloca [1024 x i8], align 16
  %8 = getelementptr inbounds nuw i8, ptr %0, i64 96
  %9 = load ptr, ptr %8, align 8
  %10 = getelementptr inbounds nuw i8, ptr %0, i64 8
  %11 = load ptr, ptr %10, align 8
  %12 = tail call i64 @file_seek(ptr noundef %11, i64 noundef %1, i32 noundef 0, ptr noundef %4) #11
  %13 = icmp eq i64 %12, -1
  br i1 %13, label %47, label %14

14:                                               ; preds = %6
  %15 = load ptr, ptr %9, align 8
  %16 = load ptr, ptr %10, align 8
  call void @llvm.lifetime.start.p0(i64 1024, ptr nonnull %7)
  %17 = getelementptr inbounds nuw i8, ptr %15, i64 8
  %18 = load ptr, ptr %15, align 8
  %19 = load i32, ptr %17, align 8
  %20 = zext i32 %19 to i64
  %21 = tail call ptr @g_strstr_len(ptr noundef %18, i64 noundef %20, ptr noundef nonnull @c_e_msg) #11
  %22 = icmp eq ptr %21, null
  br i1 %22, label %.lr.ph.i, label %.loopexit

.lr.ph.i:                                         ; preds = %14, %29
  %23 = call i32 @file_read(ptr noundef nonnull %7, i32 noundef 1024, ptr noundef %16) #11
  %24 = icmp slt i32 %23, 0
  br i1 %24, label %25, label %27

25:                                               ; preds = %.lr.ph.i
  %26 = call i32 @file_error(ptr noundef %16, ptr noundef %5) #11
  store i32 %26, ptr %4, align 4
  br label %read_until.exit.thread

27:                                               ; preds = %.lr.ph.i
  %28 = icmp eq i32 %23, 0
  br i1 %28, label %read_until.exit.thread, label %29

29:                                               ; preds = %27
  %30 = call ptr @g_byte_array_append(ptr noundef nonnull %15, ptr noundef nonnull %7, i32 noundef %23) #11
  %31 = load ptr, ptr %15, align 8
  %32 = load i32, ptr %17, align 8
  %33 = zext i32 %32 to i64
  %34 = call ptr @g_strstr_len(ptr noundef %31, i64 noundef %33, ptr noundef nonnull @c_e_msg) #11
  %35 = icmp eq ptr %34, null
  br i1 %35, label %.lr.ph.i, label %.loopexit, !llvm.loop !4

read_until.exit.thread:                           ; preds = %27, %25
  call void @llvm.lifetime.end.p0(i64 1024, ptr nonnull %7)
  br label %47

.loopexit:                                        ; preds = %29, %14
  %36 = phi ptr [ %21, %14 ], [ %34, %29 ]
  call void @llvm.lifetime.end.p0(i64 1024, ptr nonnull %7)
  %37 = getelementptr i8, ptr %36, i64 6
  %38 = load ptr, ptr %9, align 8
  %39 = load ptr, ptr %38, align 8
  %40 = ptrtoint ptr %37 to i64
  %41 = ptrtoint ptr %39 to i64
  %42 = sub i64 %40, %41
  %43 = and i64 %42, 4294967295
  %44 = call fastcc i32 @nettrace_msg_to_packet(ptr noundef nonnull %9, ptr noundef %2, ptr noundef %3, ptr noundef %39, i64 noundef %43, ptr noundef %4, ptr noundef %5)
  %45 = load ptr, ptr %9, align 8
  %46 = call ptr @g_byte_array_set_size(ptr noundef %45, i32 noundef 0) #11
  br label %47

47:                                               ; preds = %read_until.exit.thread, %6, %.loopexit
  %.0 = phi i32 [ %44, %.loopexit ], [ 0, %6 ], [ 0, %read_until.exit.thread ]
  ret i32 %.0
}